Certificate:
    Data:
        Version: 3 (0x2)
        Serial Number:
            80:44:e8:da:ae:6b:30:25
    Signature Algorithm: sha256WithRSAEncryption
        Issuer: CN=localhost
        Validity
            Not Before: Aug 12 13:59:47 2018 GMT
            Not After : Sep 11 13:59:47 2018 GMT
        Subject: CN=localhost
        Subject Public Key Info:
            Public Key Algorithm: rsaEncryption
                Public-Key: (2048 bit)
                Modulus:
                    00:dd:4c:3b:df:c4:f6:6f:57:d4:1f:c8:c5:68:df:
                    1d:66:ee:65:94:9f:eb:48:f8:5d:84:98:64:e2:cd:
                    18:c1:72:32:4b:01:f5:9f:2f:99:de:28:16:6d:27:
                    ad:f0:29:d4:60:9b:44:10:53:7e:31:bd:bd:14:82:
                    5a:f5:7c:13:1f:c1:44:e0:45:db:3b:bf:6b:bc:85:
                    75:9a:9d:e4:b3:ef:9e:19:ba:9d:f1:9d:53:99:09:
                    3a:ea:21:da:cb:5b:64:b0:61:e6:41:18:95:73:e8:
                    1d:8b:78:af:f9:ed:d6:d1:f6:a5:78:dd:81:86:3b:
                    9a:2d:a5:e8:5a:e4:83:fe:ca:bf:08:72:cb:47:b8:
                    e3:d5:cd:7a:4d:af:5b:49:ff:7c:1d:57:c0:10:46:
                    5a:3b:b3:0a:ed:91:93:4e:17:50:b4:03:ed:29:93:
                    6e:55:10:66:91:a1:c6:5e:89:c6:bb:bb:c9:65:7f:
                    a2:36:78:e8:57:5a:5f:65:a1:32:b3:ab:98:6c:89:
                    dd:26:79:cc:04:ef:9a:8b:3d:ae:35:e3:3c:96:cc:
                    06:73:e9:48:c3:42:1e:ef:d6:93:ff:e0:fc:1c:a3:
                    71:b2:79:12:85:f8:64:5b:27:ff:ee:f5:8e:b5:7a:
                    00:68:65:fe:2c:b5:27:07:56:04:d6:c9:3b:65:a4:
                    41:ff
                Exponent: 65537 (0x10001)
        X509v3 extensions:
            X509v3 Subject Key Identifier: 
                37:50:9B:B6:18:FB:E1:E0:D7:7B:1E:BD:B9:67:93:53:87:9E:5B:7B
            X509v3 Authority Key Identifier: 
                keyid:37:50:9B:B6:18:FB:E1:E0:D7:7B:1E:BD:B9:67:93:53:87:9E:5B:7B

            X509v3 Basic Constraints: 
                CA:TRUE
    Signature Algorithm: sha256WithRSAEncryption
         49:36:be:10:8e:52:02:a7:47:21:62:89:1a:2b:dc:2f:f8:71:
         f1:b1:3e:81:80:fc:1f:d4:7a:af:94:29:5c:58:ec:c3:e4:26:
         d5:1f:79:6a:1e:8f:c0:30:e7:1e:91:b6:e2:6f:3e:ea:5e:8c:
         98:1d:45:02:22:19:3e:69:17:e4:8e:61:09:eb:3a:c3:3e:82:
         15:94:b0:a7:f1:97:70:d2:dc:81:52:c6:79:02:96:b2:3d:cc:
         c0:d4:5a:e3:77:aa:fd:58:8b:e1:79:e7:25:7d:6a:2f:61:05:
         bc:ba:1b:68:93:e9:9c:a5:3a:82:4c:ee:1a:f8:a1:5f:15:ca:
         0c:7c:de:f2:20:c0:74:ea:a8:88:6e:88:2f:e9:09:6a:22:cb:
         4f:cd:cc:4f:4a:47:31:ba:d7:33:2a:84:20:e1:37:bf:26:fd:
         24:ff:02:2b:f5:0c:a0:7b:41:87:06:85:b8:c3:09:ed:e9:33:
         87:ab:31:19:9f:1b:28:b5:db:dd:ec:d7:a2:67:87:ae:ab:64:
         c2:eb:ad:4d:7b:92:57:6e:d9:d3:6c:e0:1f:34:ae:ef:48:44:
         66:cb:ac:de:9c:ff:4d:f4:e1:da:22:0d:fd:a7:c9:56:81:d7:
         23:e5:51:92:22:8b:49:00:fe:24:fd:92:9d:bd:8a:cd:49:87:
         93:db:f7:a1
-----BEGIN CERTIFICATE-----
MIIC+zCCAeOgAwIBAgIJAIBE6NquazAlMA0GCSqGSIb3DQEBCwUAMBQxEjAQBgNV
BAMMCWxvY2FsaG9zdDAeFw0xODA4MTIxMzU5NDdaFw0xODA5MTExMzU5NDdaMBQx
EjAQBgNVBAMMCWxvY2FsaG9zdDCCASIwDQYJKoZIhvcNAQEBBQADggEPADCCAQoC
ggEBAN1MO9/E9m9X1B/IxWjfHWbuZZSf60j4XYSYZOLNGMFyMksB9Z8vmd4oFm0n
rfAp1GCbRBBTfjG9vRSCWvV8Ex/BROBF2zu/a7yFdZqd5LPvnhm6nfGdU5kJOuoh
2stbZLBh5kEYlXPoHYt4r/nt1tH2pXjdgYY7mi2l6Frkg/7Kvwhyy0e449XNek2v
W0n/fB1XwBBGWjuzCu2Rk04XULQD7SmTblUQZpGhxl6Jxru7yWV/ojZ46FdaX2Wh
MrOrmGyJ3SZ5zATvmos9rjXjPJbMBnPpSMNCHu/Wk//g/ByjcbJ5EoX4ZFsn/+71
jrV6AGhl/iy1JwdWBNbJO2WkQf8CAwEAAaNQME4wHQYDVR0OBBYEFDdQm7YY++Hg
13sevblnk1OHnlt7MB8GA1UdIwQYMBaAFDdQm7YY++Hg13sevblnk1OHnlt7MAwG
A1UdEwQFMAMBAf8wDQYJKoZIhvcNAQELBQADggEBAEk2vhCOUgKnRyFiiRor3C/4
cfGxPoGA/B/Ueq+UKVxY7MPkJtUfeWoej8Aw5x6RtuJvPupejJgdRQIiGT5pF+SO
YQnrOsM+ghWUsKfxl3DS3IFSxnkClrI9zMDUWuN3qv1Yi+F55yV9ai9hBby6G2iT
6ZylOoJM7hr4oV8Vygx83vIgwHTqqIhuiC/pCWoiy0/NzE9KRzG61zMqhCDhN78m
/ST/Aiv1DKB7QYcGhbjDCe3pM4erMRmfGyi1293s16Jnh66rZMLrrU17kldu2dNs
4B80ru9IRGbLrN6c/0304doiDf2nyVaB1yPlUZIii0kA/iT9kp29is1Jh5Pb96E=
-----END CERTIFICATE-----
